; Function Attrs: mustprogress uwtable
define void @_ZNK7rocksdb18SeqnoToTimeMapping13SeqnoTimePair6EncodeERNSt7__cxx1112basic_stringIcSt11char_traitsIcESaIcEEE(ptr noundef nonnull readonly align 8 captures(none) dereferenceable(16) %0, ptr noundef nonnull align 8 dereferenceable(32) %1) local_unnamed_addr #6 align 2 personality ptr @__gxx_personality_v0 {
  %3 = alloca [20 x i8], align 16
  %4 = load i64, ptr %0, align 8, !tbaa !56
  %5 = getelementptr inbounds nuw i8, ptr %0, i64 8
  %6 = load i64, ptr %5, align 8, !tbaa !33
  call void @llvm.lifetime.start.p0(i64 20, ptr nonnull %3) #27
  %7 = icmp ugt i64 %4, 127
  br i1 %7, label %.lr.ph.i.i, label %_ZN7rocksdb14EncodeVarint64EPcm.exit.i

.lr.ph.i.i:                                       ; preds = %2, %.lr.ph.i.i
  %.09.i.i = phi ptr [ %10, %.lr.ph.i.i ], [ %3, %2 ]
  %.078.i.i = phi i64 [ %11, %.lr.ph.i.i ], [ %4, %2 ]
  %8 = trunc i64 %.078.i.i to i8
  %9 = or i8 %8, -128
  %10 = getelementptr inbounds nuw i8, ptr %.09.i.i, i64 1
  store i8 %9, ptr %.09.i.i, align 1, !tbaa !238
  %11 = lshr i64 %.078.i.i, 7
  %12 = icmp ugt i64 %.078.i.i, 16383
  br i1 %12, label %.lr.ph.i.i, label %_ZN7rocksdb14EncodeVarint64EPcm.exit.i, !llvm.loop !239

_ZN7rocksdb14EncodeVarint64EPcm.exit.i:           ; preds = %.lr.ph.i.i, %2
  %.07.lcssa.i.i = phi i64 [ %4, %2 ], [ %11, %.lr.ph.i.i ]
  %.0.lcssa.i.i = phi ptr [ %3, %2 ], [ %10, %.lr.ph.i.i ]
  %13 = trunc nuw nsw i64 %.07.lcssa.i.i to i8
  %14 = getelementptr inbounds nuw i8, ptr %.0.lcssa.i.i, i64 1
  store i8 %13, ptr %.0.lcssa.i.i, align 1, !tbaa !238
  %15 = icmp ugt i64 %6, 127
  br i1 %15, label %.lr.ph.i6.i, label %_ZN7rocksdb14EncodeVarint64EPcm.exit9.i

.lr.ph.i6.i:                                      ; preds = %_ZN7rocksdb14EncodeVarint64EPcm.exit.i, %.lr.ph.i6.i
  %.09.i7.i = phi ptr [ %18, %.lr.ph.i6.i ], [ %14, %_ZN7rocksdb14EncodeVarint64EPcm.exit.i ]
  %.078.i8.i = phi i64 [ %19, %.lr.ph.i6.i ], [ %6, %_ZN7rocksdb14EncodeVarint64EPcm.exit.i ]
  %16 = trunc i64 %.078.i8.i to i8
  %17 = or i8 %16, -128
  %18 = getelementptr inbounds nuw i8, ptr %.09.i7.i, i64 1
  store i8 %17, ptr %.09.i7.i, align 1, !tbaa !238
  %19 = lshr i64 %.078.i8.i, 7
  %20 = icmp ugt i64 %.078.i8.i, 16383
  br i1 %20, label %.lr.ph.i6.i, label %_ZN7rocksdb14EncodeVarint64EPcm.exit9.i, !llvm.loop !239

_ZN7rocksdb14EncodeVarint64EPcm.exit9.i:          ; preds = %.lr.ph.i6.i, %_ZN7rocksdb14EncodeVarint64EPcm.exit.i
  %.07.lcssa.i4.i = phi i64 [ %6, %_ZN7rocksdb14EncodeVarint64EPcm.exit.i ], [ %19, %.lr.ph.i6.i ]
  %.0.lcssa.i5.i = phi ptr [ %14, %_ZN7rocksdb14EncodeVarint64EPcm.exit.i ], [ %18, %.lr.ph.i6.i ]
  %21 = trunc nuw nsw i64 %.07.lcssa.i4.i to i8
  %22 = getelementptr inbounds nuw i8, ptr %.0.lcssa.i5.i, i64 1
  store i8 %21, ptr %.0.lcssa.i5.i, align 1, !tbaa !238
  %23 = ptrtoint ptr %22 to i64
  %24 = ptrtoint ptr %3 to i64
  %25 = sub i64 %23, %24
  %26 = getelementptr inbounds nuw i8, ptr %1, i64 8
  %27 = load i64, ptr %26, align 8, !tbaa !240
  %28 = sub i64 4611686018427387903, %27
  %29 = icmp ult i64 %28, %25
  br i1 %29, label %30, label %_ZN7rocksdb19PutVarint64Varint64EPNSt7__cxx1112basic_stringIcSt11char_traitsIcESaIcEEEmm.exit

30:                                               ; preds = %_ZN7rocksdb14EncodeVarint64EPcm.exit9.i
  call void @_ZSt20__throw_length_errorPKc(ptr noundef nonnull @.str.5) #25
  unreachable

_ZN7rocksdb19PutVarint64Varint64EPNSt7__cxx1112basic_stringIcSt11char_traitsIcESaIcEEEmm.exit: ; preds = %_ZN7rocksdb14EncodeVarint64EPcm.exit9.i
  %31 = call noundef nonnull align 8 dereferenceable(32) ptr @_ZNSt7__cxx1112basic_stringIcSt11char_traitsIcESaIcEE9_M_appendEPKcm(ptr noundef nonnull align 8 dereferenceable(32) %1, ptr noundef nonnull %3, i64 noundef %25)
  call void @llvm.lifetime.end.p0(i64 20, ptr nonnull %3) #27
  ret void
}